; Function Attrs: mustprogress nofree norecurse nounwind memory(read, argmem: readwrite, inaccessiblemem: none) uwtable
define noundef double @_ZNK7rocksdb13HistogramImpl10PercentileEd(ptr noundef nonnull readonly align 8 captures(none) dereferenceable(968) %0, double noundef %1) unnamed_addr #5 align 2 personality ptr @__gxx_personality_v0 {
  %3 = getelementptr inbounds nuw i8, ptr %0, i64 8
  %4 = getelementptr inbounds nuw i8, ptr %0, i64 24
  %5 = load atomic i64, ptr %4 monotonic, align 8
  %6 = uitofp i64 %5 to double
  %7 = fdiv double %1, 1.000000e+02
  %8 = fmul double %7, %6
  %9 = getelementptr inbounds nuw i8, ptr %0, i64 920
  %10 = load i64, ptr %9, align 8, !tbaa !25
  %.not4857.not.i = icmp eq i64 %10, 0
  br i1 %.not4857.not.i, label %._crit_edge.i, label %.lr.ph.i

.lr.ph.i:                                         ; preds = %2
  %11 = getelementptr inbounds nuw i8, ptr %0, i64 48
  br label %12

12:                                               ; preds = %44, %.lr.ph.i
  %13 = phi i64 [ 0, %.lr.ph.i ], [ %46, %44 ]
  %.03559.i = phi i64 [ 0, %.lr.ph.i ], [ %16, %44 ]
  %.03858.i = phi i32 [ 0, %.lr.ph.i ], [ %45, %44 ]
  %14 = getelementptr inbounds nuw [109 x %"struct.std::atomic"], ptr %11, i64 0, i64 %13
  %15 = load atomic i64, ptr %14 monotonic, align 8
  %16 = add i64 %15, %.03559.i
  %17 = uitofp i64 %16 to double
  %18 = fcmp ugt double %8, %17
  br i1 %18, label %44, label %19

19:                                               ; preds = %12
  %20 = icmp eq i32 %.03858.i, 0
  %.pre.i = load ptr, ptr @_ZN7rocksdb12_GLOBAL__N_112bucketMapperE, align 8, !tbaa !4
  br i1 %20, label %.thread51.i, label %21

21:                                               ; preds = %19
  %22 = add i32 %.03858.i, -1
  %23 = zext i32 %22 to i64
  %24 = getelementptr inbounds nuw i64, ptr %.pre.i, i64 %23
  %25 = load i64, ptr %24, align 8, !tbaa !12
  br label %.thread51.i

.thread51.i:                                      ; preds = %21, %19
  %26 = phi i64 [ %25, %21 ], [ 0, %19 ]
  %27 = getelementptr inbounds nuw i64, ptr %.pre.i, i64 %13
  %28 = load i64, ptr %27, align 8, !tbaa !12
  %.not.i = icmp eq i64 %15, 0
  %29 = uitofp i64 %.03559.i to double
  %30 = fsub double %8, %29
  %31 = uitofp i64 %15 to double
  %32 = fdiv double %30, %31
  %.039.i = select i1 %.not.i, double 0.000000e+00, double %32
  %33 = uitofp i64 %26 to double
  %34 = sub i64 %28, %26
  %35 = uitofp i64 %34 to double
  %36 = tail call double @llvm.fmuladd.f64(double %35, double %.039.i, double %33)
  %37 = load atomic i64, ptr %3 monotonic, align 8
  %38 = getelementptr inbounds nuw i8, ptr %0, i64 16
  %39 = load atomic i64, ptr %38 monotonic, align 8
  %40 = uitofp i64 %37 to double
  %41 = fcmp olt double %36, %40
  %.036.i = select i1 %41, double %40, double %36
  %42 = uitofp i64 %39 to double
  %43 = fcmp ogt double %.036.i, %42
  %.137.i = select i1 %43, double %42, double %.036.i
  br label %_ZNK7rocksdb13HistogramStat10PercentileEd.exit

44:                                               ; preds = %12
  %45 = add i32 %.03858.i, 1
  %46 = zext i32 %45 to i64
  %.not48.i = icmp ugt i64 %10, %46
  br i1 %.not48.i, label %12, label %._crit_edge.i, !llvm.loop !33

._crit_edge.i:                                    ; preds = %44, %2
  %47 = getelementptr inbounds nuw i8, ptr %0, i64 16
  %48 = load atomic i64, ptr %47 monotonic, align 8
  %49 = uitofp i64 %48 to double
  br label %_ZNK7rocksdb13HistogramStat10PercentileEd.exit

_ZNK7rocksdb13HistogramStat10PercentileEd.exit:   ; preds = %.thread51.i, %._crit_edge.i
  %.3.i = phi double [ %49, %._crit_edge.i ], [ %.137.i, %.thread51.i ]
  ret double %.3.i
}